target datalayout = "e-m:e-p270:32:32-p271:32:32-p272:64:64-i64:64-i128:128-f80:128-n8:16:32:64-S128"
target triple = "x86_64-pc-linux-gnu"

%"class.cv::Mat" = type { i32, i32, i32, i32, ptr, ptr, ptr, ptr, ptr, ptr, %"struct.cv::MatSize", %"struct.cv::MatStep" }
%"struct.cv::MatSize" = type { ptr }
%"struct.cv::MatStep" = type { ptr, [2 x i64] }
%"class.cv::ximgproc::segmentation::Edge" = type { i32, i32, float }

; Function Attrs: inlinehint mustprogress nounwind uwtable
define linkonce_odr noundef float @_ZSt4sqrtf(float noundef %0) #7 comdat {
  %2 = alloca float, align 4
  store float %0, ptr %2, align 4, !tbaa !48
  %3 = load float, ptr %2, align 4, !tbaa !48
  %4 = call float @sqrtf(float noundef %3) #3, !tbaa !27
  ret float %4
}

; Function Attrs: inlinehint mustprogress nounwind uwtable
define linkonce_odr hidden noundef ptr @_ZNK2cv3Mat3ptrIfEEPKT_i(ptr noundef nonnull align 8 dereferenceable(96) %0, i32 noundef %1) #7 comdat align 2 {
  %3 = alloca ptr, align 8
  %4 = alloca i32, align 4
  store ptr %0, ptr %3, align 8, !tbaa !8
  store i32 %1, ptr %4, align 4, !tbaa !27
  %5 = load ptr, ptr %3, align 8
  %6 = getelementptr inbounds nuw %"class.cv::Mat", ptr %5, i32 0, i32 4
  %7 = load ptr, ptr %6, align 8, !tbaa !60
  %8 = getelementptr inbounds nuw %"class.cv::Mat", ptr %5, i32 0, i32 11
  %9 = getelementptr inbounds nuw %"struct.cv::MatStep", ptr %8, i32 0, i32 0
  %10 = load ptr, ptr %9, align 8, !tbaa !61
  %11 = getelementptr inbounds i64, ptr %10, i64 0
  %12 = load i64, ptr %11, align 8, !tbaa !62
  %13 = load i32, ptr %4, align 4, !tbaa !27
  %14 = sext i32 %13 to i64
  %15 = mul i64 %12, %14
  %16 = getelementptr inbounds nuw i8, ptr %7, i64 %15
  ret ptr %16
}

; Function Attrs: inlinehint mustprogress nounwind uwtable
define linkonce_odr hidden noundef i32 @_ZNK2cv3Mat8channelsEv(ptr noundef nonnull align 8 dereferenceable(96) %0) #7 comdat align 2 {
  %2 = alloca ptr, align 8
  store ptr %0, ptr %2, align 8, !tbaa !8
  %3 = load ptr, ptr %2, align 8
  %4 = getelementptr inbounds nuw %"class.cv::Mat", ptr %3, i32 0, i32 0
  %5 = load i32, ptr %4, align 8, !tbaa !59
  %6 = and i32 %5, 4088
  %7 = ashr i32 %6, 3
  %8 = add nsw i32 %7, 1
  ret i32 %8
}

; Function Attrs: mustprogress uwtable
define hidden void @_ZN2cv8ximgproc12segmentation21GraphSegmentationImpl10buildGraphEPPNS1_4EdgeERiRKNS_3MatE(ptr noundef nonnull align 8 dereferenceable(56) %0, ptr noundef %1, ptr noundef nonnull align 4 dereferenceable(4) %2, ptr noundef nonnull align 8 dereferenceable(96) %3) #4 align 2 {
  %5 = alloca ptr, align 8
  %6 = alloca ptr, align 8
  %7 = alloca ptr, align 8
  %8 = alloca ptr, align 8
  %9 = alloca i32, align 4
  %10 = alloca i32, align 4
  %11 = alloca i32, align 4
  %12 = alloca ptr, align 8
  %13 = alloca i32, align 4
  %14 = alloca i32, align 4
  %15 = alloca i32, align 4
  %16 = alloca i32, align 4
  %17 = alloca i32, align 4
  %18 = alloca i32, align 4
  %19 = alloca ptr, align 8
  %20 = alloca float, align 4
  %21 = alloca i32, align 4
  %22 = alloca float, align 4
  %23 = alloca float, align 4
  store ptr %0, ptr %5, align 8, !tbaa !3
  store ptr %1, ptr %6, align 8, !tbaa !31
  store ptr %2, ptr %7, align 8, !tbaa !34
  store ptr %3, ptr %8, align 8, !tbaa !8
  %24 = load ptr, ptr %8, align 8, !tbaa !8
  %25 = getelementptr inbounds nuw %"class.cv::Mat", ptr %24, i32 0, i32 2
  %26 = load i32, ptr %25, align 8, !tbaa !36
  %27 = load ptr, ptr %8, align 8, !tbaa !8
  %28 = getelementptr inbounds nuw %"class.cv::Mat", ptr %27, i32 0, i32 3
  %29 = load i32, ptr %28, align 4, !tbaa !43
  %30 = mul nsw i32 %26, %29
  %31 = mul nsw i32 %30, 4
  %32 = sext i32 %31 to i64
  %33 = call { i64, i1 } @llvm.umul.with.overflow.i64(i64 %32, i64 12)
  %34 = extractvalue { i64, i1 } %33, 1
  %35 = extractvalue { i64, i1 } %33, 0
  %36 = select i1 %34, i64 -1, i64 %35
  %37 = call noalias noundef nonnull ptr @_Znam(i64 noundef %36) #20
  %38 = load ptr, ptr %6, align 8, !tbaa !31
  store ptr %37, ptr %38, align 8, !tbaa !44
  %39 = load ptr, ptr %7, align 8, !tbaa !34
  store i32 0, ptr %39, align 4, !tbaa !27
  call void @llvm.lifetime.start.p0(i64 4, ptr %9) #3
  %40 = load ptr, ptr %8, align 8, !tbaa !8
  %41 = call noundef i32 @_ZNK2cv3Mat8channelsEv(ptr noundef nonnull align 8 dereferenceable(96) %40)
  store i32 %41, ptr %9, align 4, !tbaa !27
  call void @llvm.lifetime.start.p0(i64 4, ptr %10) #3
  store i32 0, ptr %10, align 4, !tbaa !27
  br label %42

42:                                               ; preds = %194, %4
  %43 = load i32, ptr %10, align 4, !tbaa !27
  %44 = load ptr, ptr %8, align 8, !tbaa !8
  %45 = getelementptr inbounds nuw %"class.cv::Mat", ptr %44, i32 0, i32 2
  %46 = load i32, ptr %45, align 8, !tbaa !36
  %47 = icmp slt i32 %43, %46
  br i1 %47, label %49, label %48

48:                                               ; preds = %42
  store i32 2, ptr %11, align 4
  call void @llvm.lifetime.end.p0(i64 4, ptr %10) #3
  br label %197

49:                                               ; preds = %42
  call void @llvm.lifetime.start.p0(i64 8, ptr %12) #3
  %50 = load ptr, ptr %8, align 8, !tbaa !8
  %51 = load i32, ptr %10, align 4, !tbaa !27
  %52 = call noundef ptr @_ZNK2cv3Mat3ptrIfEEPKT_i(ptr noundef nonnull align 8 dereferenceable(96) %50, i32 noundef %51)
  store ptr %52, ptr %12, align 8, !tbaa !46
  call void @llvm.lifetime.start.p0(i64 4, ptr %13) #3
  store i32 0, ptr %13, align 4, !tbaa !27
  br label %53

53:                                               ; preds = %190, %49
  %54 = load i32, ptr %13, align 4, !tbaa !27
  %55 = load ptr, ptr %8, align 8, !tbaa !8
  %56 = getelementptr inbounds nuw %"class.cv::Mat", ptr %55, i32 0, i32 3
  %57 = load i32, ptr %56, align 4, !tbaa !43
  %58 = icmp slt i32 %54, %57
  br i1 %58, label %60, label %59

59:                                               ; preds = %53
  store i32 5, ptr %11, align 4
  call void @llvm.lifetime.end.p0(i64 4, ptr %13) #3
  br label %193

60:                                               ; preds = %53
  call void @llvm.lifetime.start.p0(i64 4, ptr %14) #3
  store i32 -1, ptr %14, align 4, !tbaa !27
  br label %61

61:                                               ; preds = %186, %60
  %62 = load i32, ptr %14, align 4, !tbaa !27
  %63 = icmp sle i32 %62, 1
  br i1 %63, label %65, label %64

64:                                               ; preds = %61
  store i32 8, ptr %11, align 4
  call void @llvm.lifetime.end.p0(i64 4, ptr %14) #3
  br label %189

65:                                               ; preds = %61
  call void @llvm.lifetime.start.p0(i64 4, ptr %15) #3
  store i32 0, ptr %15, align 4, !tbaa !27
  call void @llvm.lifetime.start.p0(i64 4, ptr %16) #3
  store i32 1, ptr %16, align 4, !tbaa !27
  br label %66

66:                                               ; preds = %184, %65
  %67 = load i32, ptr %15, align 4, !tbaa !27
  %68 = icmp sle i32 %67, 1
  br i1 %68, label %70, label %69

69:                                               ; preds = %66
  store i32 11, ptr %11, align 4
  call void @llvm.lifetime.end.p0(i64 4, ptr %16) #3
  call void @llvm.lifetime.end.p0(i64 4, ptr %15) #3
  br label %185

70:                                               ; preds = %66
  call void @llvm.lifetime.start.p0(i64 4, ptr %17) #3
  %71 = load i32, ptr %10, align 4, !tbaa !27
  %72 = load i32, ptr %14, align 4, !tbaa !27
  %73 = load i32, ptr %16, align 4, !tbaa !27
  %74 = mul nsw i32 %72, %73
  %75 = add nsw i32 %71, %74
  store i32 %75, ptr %17, align 4, !tbaa !27
  call void @llvm.lifetime.start.p0(i64 4, ptr %18) #3
  %76 = load i32, ptr %13, align 4, !tbaa !27
  %77 = load i32, ptr %14, align 4, !tbaa !27
  %78 = load i32, ptr %15, align 4, !tbaa !27
  %79 = mul nsw i32 %77, %78
  %80 = add nsw i32 %76, %79
  store i32 %80, ptr %18, align 4, !tbaa !27
  %81 = load i32, ptr %17, align 4, !tbaa !27
  %82 = icmp sge i32 %81, 0
  br i1 %82, label %83, label %176

83:                                               ; preds = %70
  %84 = load i32, ptr %17, align 4, !tbaa !27
  %85 = load ptr, ptr %8, align 8, !tbaa !8
  %86 = getelementptr inbounds nuw %"class.cv::Mat", ptr %85, i32 0, i32 2
  %87 = load i32, ptr %86, align 8, !tbaa !36
  %88 = icmp slt i32 %84, %87
  br i1 %88, label %89, label %176

89:                                               ; preds = %83
  %90 = load i32, ptr %18, align 4, !tbaa !27
  %91 = icmp sge i32 %90, 0
  br i1 %91, label %92, label %176

92:                                               ; preds = %89
  %93 = load i32, ptr %18, align 4, !tbaa !27
  %94 = load ptr, ptr %8, align 8, !tbaa !8
  %95 = getelementptr inbounds nuw %"class.cv::Mat", ptr %94, i32 0, i32 3
  %96 = load i32, ptr %95, align 4, !tbaa !43
  %97 = icmp slt i32 %93, %96
  br i1 %97, label %98, label %176

98:                                               ; preds = %92
  call void @llvm.lifetime.start.p0(i64 8, ptr %19) #3
  %99 = load ptr, ptr %8, align 8, !tbaa !8
  %100 = load i32, ptr %17, align 4, !tbaa !27
  %101 = call noundef ptr @_ZNK2cv3Mat3ptrIfEEPKT_i(ptr noundef nonnull align 8 dereferenceable(96) %99, i32 noundef %100)
  store ptr %101, ptr %19, align 8, !tbaa !46
  call void @llvm.lifetime.start.p0(i64 4, ptr %20) #3
  store float 0.000000e+00, ptr %20, align 4, !tbaa !48
  call void @llvm.lifetime.start.p0(i64 4, ptr %21) #3
  store i32 0, ptr %21, align 4, !tbaa !27
  br label %102

102:                                              ; preds = %131, %98
  %103 = load i32, ptr %21, align 4, !tbaa !27
  %104 = load i32, ptr %9, align 4, !tbaa !27
  %105 = icmp slt i32 %103, %104
  br i1 %105, label %107, label %106

106:                                              ; preds = %102
  store i32 14, ptr %11, align 4
  call void @llvm.lifetime.end.p0(i64 4, ptr %21) #3
  br label %134

107:                                              ; preds = %102
  call void @llvm.lifetime.start.p0(i64 4, ptr %22) #3
  %108 = load ptr, ptr %12, align 8, !tbaa !46
  %109 = load i32, ptr %13, align 4, !tbaa !27
  %110 = load i32, ptr %9, align 4, !tbaa !27
  %111 = mul nsw i32 %109, %110
  %112 = load i32, ptr %21, align 4, !tbaa !27
  %113 = add nsw i32 %111, %112
  %114 = sext i32 %113 to i64
  %115 = getelementptr inbounds float, ptr %108, i64 %114
  %116 = load float, ptr %115, align 4, !tbaa !48
  %117 = load ptr, ptr %19, align 8, !tbaa !46
  %118 = load i32, ptr %18, align 4, !tbaa !27
  %119 = load i32, ptr %9, align 4, !tbaa !27
  %120 = mul nsw i32 %118, %119
  %121 = load i32, ptr %21, align 4, !tbaa !27
  %122 = add nsw i32 %120, %121
  %123 = sext i32 %122 to i64
  %124 = getelementptr inbounds float, ptr %117, i64 %123
  %125 = load float, ptr %124, align 4, !tbaa !48
  %126 = fsub float %116, %125
  store float %126, ptr %22, align 4, !tbaa !48
  %127 = load float, ptr %22, align 4, !tbaa !48
  %128 = load float, ptr %22, align 4, !tbaa !48
  %129 = load float, ptr %20, align 4, !tbaa !48
  %130 = call float @llvm.fmuladd.f32(float %127, float %128, float %129)
  store float %130, ptr %20, align 4, !tbaa !48
  call void @llvm.lifetime.end.p0(i64 4, ptr %22) #3
  br label %131

131:                                              ; preds = %107
  %132 = load i32, ptr %21, align 4, !tbaa !27
  %133 = add nsw i32 %132, 1
  store i32 %133, ptr %21, align 4, !tbaa !27
  br label %102, !llvm.loop !49

134:                                              ; preds = %106
  call void @llvm.lifetime.start.p0(i64 4, ptr %23) #3
  store float 0.000000e+00, ptr %23, align 4, !tbaa !48
  %135 = load float, ptr %20, align 4, !tbaa !48
  %136 = call noundef float @_ZSt4sqrtf(float noundef %135)
  store float %136, ptr %23, align 4, !tbaa !48
  %137 = load float, ptr %23, align 4, !tbaa !48
  %138 = load ptr, ptr %6, align 8, !tbaa !31
  %139 = load ptr, ptr %138, align 8, !tbaa !44
  %140 = load ptr, ptr %7, align 8, !tbaa !34
  %141 = load i32, ptr %140, align 4, !tbaa !27
  %142 = sext i32 %141 to i64
  %143 = getelementptr inbounds %"class.cv::ximgproc::segmentation::Edge", ptr %139, i64 %142
  %144 = getelementptr inbounds nuw %"class.cv::ximgproc::segmentation::Edge", ptr %143, i32 0, i32 2
  store float %137, ptr %144, align 4, !tbaa !51
  %145 = load i32, ptr %10, align 4, !tbaa !27
  %146 = load ptr, ptr %8, align 8, !tbaa !8
  %147 = getelementptr inbounds nuw %"class.cv::Mat", ptr %146, i32 0, i32 3
  %148 = load i32, ptr %147, align 4, !tbaa !43
  %149 = mul nsw i32 %145, %148
  %150 = load i32, ptr %13, align 4, !tbaa !27
  %151 = add nsw i32 %149, %150
  %152 = load ptr, ptr %6, align 8, !tbaa !31
  %153 = load ptr, ptr %152, align 8, !tbaa !44
  %154 = load ptr, ptr %7, align 8, !tbaa !34
  %155 = load i32, ptr %154, align 4, !tbaa !27
  %156 = sext i32 %155 to i64
  %157 = getelementptr inbounds %"class.cv::ximgproc::segmentation::Edge", ptr %153, i64 %156
  %158 = getelementptr inbounds nuw %"class.cv::ximgproc::segmentation::Edge", ptr %157, i32 0, i32 0
  store i32 %151, ptr %158, align 4, !tbaa !53
  %159 = load i32, ptr %17, align 4, !tbaa !27
  %160 = load ptr, ptr %8, align 8, !tbaa !8
  %161 = getelementptr inbounds nuw %"class.cv::Mat", ptr %160, i32 0, i32 3
  %162 = load i32, ptr %161, align 4, !tbaa !43
  %163 = mul nsw i32 %159, %162
  %164 = load i32, ptr %18, align 4, !tbaa !27
  %165 = add nsw i32 %163, %164
  %166 = load ptr, ptr %6, align 8, !tbaa !31
  %167 = load ptr, ptr %166, align 8, !tbaa !44
  %168 = load ptr, ptr %7, align 8, !tbaa !34
  %169 = load i32, ptr %168, align 4, !tbaa !27
  %170 = sext i32 %169 to i64
  %171 = getelementptr inbounds %"class.cv::ximgproc::segmentation::Edge", ptr %167, i64 %170
  %172 = getelementptr inbounds nuw %"class.cv::ximgproc::segmentation::Edge", ptr %171, i32 0, i32 1
  store i32 %165, ptr %172, align 4, !tbaa !54
  %173 = load ptr, ptr %7, align 8, !tbaa !34
  %174 = load i32, ptr %173, align 4, !tbaa !27
  %175 = add nsw i32 %174, 1
  store i32 %175, ptr %173, align 4, !tbaa !27
  call void @llvm.lifetime.end.p0(i64 4, ptr %23) #3
  call void @llvm.lifetime.end.p0(i64 4, ptr %20) #3
  call void @llvm.lifetime.end.p0(i64 8, ptr %19) #3
  br label %176

176:                                              ; preds = %134, %92, %89, %83, %70
  call void @llvm.lifetime.end.p0(i64 4, ptr %18) #3
  call void @llvm.lifetime.end.p0(i64 4, ptr %17) #3
  br label %177

177:                                              ; preds = %176
  %178 = load i32, ptr %15, align 4, !tbaa !27
  %179 = add nsw i32 %178, 1
  store i32 %179, ptr %15, align 4, !tbaa !27
  %180 = icmp ne i32 %178, 0
  br i1 %180, label %184, label %181

181:                                              ; preds = %177
  %182 = load i32, ptr %16, align 4, !tbaa !27
  %183 = add nsw i32 %182, -1
  store i32 %183, ptr %16, align 4, !tbaa !27
  br label %184

184:                                              ; preds = %181, %177
  br label %66, !llvm.loop !55

185:                                              ; preds = %69
  br label %186

186:                                              ; preds = %185
  %187 = load i32, ptr %14, align 4, !tbaa !27
  %188 = add nsw i32 %187, 2
  store i32 %188, ptr %14, align 4, !tbaa !27
  br label %61, !llvm.loop !56

189:                                              ; preds = %64
  br label %190

190:                                              ; preds = %189
  %191 = load i32, ptr %13, align 4, !tbaa !27
  %192 = add nsw i32 %191, 1
  store i32 %192, ptr %13, align 4, !tbaa !27
  br label %53, !llvm.loop !57

193:                                              ; preds = %59
  call void @llvm.lifetime.end.p0(i64 8, ptr %12) #3
  br label %194

194:                                              ; preds = %193
  %195 = load i32, ptr %10, align 4, !tbaa !27
  %196 = add nsw i32 %195, 1
  store i32 %196, ptr %10, align 4, !tbaa !27
  br label %42, !llvm.loop !58

197:                                              ; preds = %48
  call void @llvm.lifetime.end.p0(i64 4, ptr %9) #3
  ret void
}