; Function Attrs: mustprogress uwtable
define hidden void @_ZN2cv8ximgproc12segmentation21GraphSegmentationImpl10buildGraphEPPNS1_4EdgeERiRKNS_3MatE(ptr nonnull readnone align 8 captures(none) %0, ptr noundef writeonly captures(none) initializes((0, 8)) %1, ptr noundef nonnull align 4 captures(none) dereferenceable(4) initializes((0, 4)) %2, ptr noundef nonnull readonly align 8 captures(none) dereferenceable(96) %3) local_unnamed_addr #3 align 2 {
  %5 = getelementptr inbounds nuw i8, ptr %3, i64 8
  %6 = load i32, ptr %5, align 8, !tbaa !23
  %7 = getelementptr inbounds nuw i8, ptr %3, i64 12
  %8 = load i32, ptr %7, align 4, !tbaa !31
  %9 = shl i32 %6, 2
  %10 = mul i32 %9, %8
  %11 = sext i32 %10 to i64
  %12 = tail call { i64, i1 } @llvm.umul.with.overflow.i64(i64 %11, i64 12)
  %13 = extractvalue { i64, i1 } %12, 1
  %14 = extractvalue { i64, i1 } %12, 0
  %15 = select i1 %13, i64 -1, i64 %14
  %16 = tail call noalias noundef nonnull ptr @_Znam(i64 noundef %15) #22
  store ptr %16, ptr %1, align 8, !tbaa !32
  store i32 0, ptr %2, align 4, !tbaa !34
  %17 = load i32, ptr %3, align 8, !tbaa !35
  %18 = lshr i32 %17, 3
  %19 = and i32 %18, 511
  %20 = add nuw nsw i32 %19, 1
  %21 = load i32, ptr %5, align 8, !tbaa !23
  %22 = icmp sgt i32 %21, 0
  br i1 %22, label %.lr.ph, label %._crit_edge82

.lr.ph:                                           ; preds = %4
  %23 = getelementptr inbounds nuw i8, ptr %3, i64 16
  %24 = load ptr, ptr %23, align 8, !tbaa !36
  %25 = getelementptr inbounds nuw i8, ptr %3, i64 72
  %26 = load ptr, ptr %25, align 8, !tbaa !37
  %27 = load i64, ptr %26, align 8, !tbaa !38
  %28 = load i32, ptr %7, align 4, !tbaa !31
  %29 = icmp sgt i32 %28, 0
  br i1 %29, label %.lr.ph.split.preheader, label %._crit_edge82

.lr.ph.split.preheader:                           ; preds = %.lr.ph
  %30 = zext nneg i32 %20 to i64
  br label %.lr.ph.split

._crit_edge82:                                    ; preds = %._crit_edge, %.lr.ph, %4
  ret void

.lr.ph.split:                                     ; preds = %.lr.ph.split.preheader, %._crit_edge
  %31 = phi i32 [ %21, %.lr.ph.split.preheader ], [ %39, %._crit_edge ]
  %32 = phi i32 [ %28, %.lr.ph.split.preheader ], [ %40, %._crit_edge ]
  %indvars.iv91 = phi i64 [ 0, %.lr.ph.split.preheader ], [ %indvars.iv.next92, %._crit_edge ]
  %33 = mul i64 %27, %indvars.iv91
  %34 = getelementptr inbounds nuw i8, ptr %24, i64 %33
  %35 = icmp sgt i32 %32, 0
  br i1 %35, label %.preheader73.preheader, label %._crit_edge

.preheader73.preheader:                           ; preds = %.lr.ph.split
  %36 = trunc nuw nsw i64 %indvars.iv91 to i32
  br label %.preheader73

.preheader73:                                     ; preds = %.preheader73.preheader, %43
  %indvars.iv88 = phi i64 [ 0, %.preheader73.preheader ], [ %indvars.iv.next89, %43 ]
  %37 = mul nuw nsw i64 %indvars.iv88, %30
  %38 = trunc nuw nsw i64 %indvars.iv88 to i32
  %invariant.gep = getelementptr inbounds nuw float, ptr %34, i64 %37
  br label %.preheader

._crit_edge.loopexit:                             ; preds = %43
  %.pre = load i32, ptr %5, align 8, !tbaa !23
  br label %._crit_edge

._crit_edge:                                      ; preds = %._crit_edge.loopexit, %.lr.ph.split
  %39 = phi i32 [ %.pre, %._crit_edge.loopexit ], [ %31, %.lr.ph.split ]
  %40 = phi i32 [ %44, %._crit_edge.loopexit ], [ %32, %.lr.ph.split ]
  %indvars.iv.next92 = add nuw nsw i64 %indvars.iv91, 1
  %41 = sext i32 %39 to i64
  %42 = icmp slt i64 %indvars.iv.next92, %41
  br i1 %42, label %.lr.ph.split, label %._crit_edge82, !llvm.loop !39

.preheader:                                       ; preds = %.preheader73, %47
  %.06478 = phi i32 [ -1, %.preheader73 ], [ %48, %47 ]
  br label %50

43:                                               ; preds = %47
  %indvars.iv.next89 = add nuw nsw i64 %indvars.iv88, 1
  %44 = load i32, ptr %7, align 4, !tbaa !31
  %45 = sext i32 %44 to i64
  %46 = icmp slt i64 %indvars.iv.next89, %45
  br i1 %46, label %.preheader73, label %._crit_edge.loopexit, !llvm.loop !42

47:                                               ; preds = %87
  %48 = add nsw i32 %.06478, 2
  %49 = icmp slt i32 %.06478, 0
  br i1 %49, label %.preheader, label %43, !llvm.loop !43

50:                                               ; preds = %.preheader, %87
  %51 = phi i1 [ true, %.preheader ], [ false, %87 ]
  %indvars.iv85 = phi i32 [ 0, %.preheader ], [ 1, %87 ]
  %.06676 = phi i32 [ 1, %.preheader ], [ %spec.select, %87 ]
  %52 = mul nsw i32 %.06676, %.06478
  %53 = add nsw i32 %52, %36
  %54 = mul nuw nsw i32 %.06478, %indvars.iv85
  %55 = add nsw i32 %54, %38
  %56 = icmp sgt i32 %53, -1
  br i1 %56, label %57, label %87

57:                                               ; preds = %50
  %58 = load i32, ptr %5, align 8, !tbaa !23
  %59 = icmp slt i32 %53, %58
  %60 = icmp sgt i32 %55, -1
  %or.cond = select i1 %59, i1 %60, i1 false
  %61 = load i32, ptr %7, align 4
  %62 = icmp slt i32 %55, %61
  %or.cond71 = select i1 %or.cond, i1 %62, i1 false
  br i1 %or.cond71, label %63, label %87

63:                                               ; preds = %57
  %64 = zext nneg i32 %53 to i64
  %65 = mul i64 %27, %64
  %66 = getelementptr inbounds nuw i8, ptr %24, i64 %65
  %67 = mul nuw nsw i32 %55, %20
  %68 = zext nneg i32 %67 to i64
  %invariant.gep95 = getelementptr inbounds nuw float, ptr %66, i64 %68
  br label %82

69:                                               ; preds = %82
  %70 = tail call noundef float @sqrtf(float noundef %86) #21, !tbaa !34
  %71 = load i32, ptr %2, align 4, !tbaa !34
  %72 = sext i32 %71 to i64
  %73 = getelementptr inbounds %"class.cv::ximgproc::segmentation::Edge", ptr %16, i64 %72, i32 2
  store float %70, ptr %73, align 4, !tbaa !44
  %74 = load i32, ptr %7, align 4, !tbaa !31
  %75 = mul nsw i32 %74, %36
  %76 = add nsw i32 %75, %38
  %77 = getelementptr inbounds %"class.cv::ximgproc::segmentation::Edge", ptr %16, i64 %72
  store i32 %76, ptr %77, align 4, !tbaa !46
  %78 = mul nsw i32 %74, %53
  %79 = add nsw i32 %78, %55
  %80 = getelementptr inbounds %"class.cv::ximgproc::segmentation::Edge", ptr %16, i64 %72, i32 1
  store i32 %79, ptr %80, align 4, !tbaa !47
  %81 = add nsw i32 %71, 1
  store i32 %81, ptr %2, align 4, !tbaa !34
  br label %87

82:                                               ; preds = %63, %82
  %indvars.iv = phi i64 [ 0, %63 ], [ %indvars.iv.next, %82 ]
  %.06274 = phi float [ 0.000000e+00, %63 ], [ %86, %82 ]
  %gep = getelementptr inbounds nuw float, ptr %invariant.gep, i64 %indvars.iv
  %83 = load float, ptr %gep, align 4, !tbaa !48
  %gep96 = getelementptr inbounds nuw float, ptr %invariant.gep95, i64 %indvars.iv
  %84 = load float, ptr %gep96, align 4, !tbaa !48
  %85 = fsub float %83, %84
  %86 = tail call float @llvm.fmuladd.f32(float %85, float %85, float %.06274)
  %indvars.iv.next = add nuw nsw i64 %indvars.iv, 1
  %exitcond.not = icmp eq i64 %indvars.iv.next, %30
  br i1 %exitcond.not, label %69, label %82, !llvm.loop !49

87:                                               ; preds = %69, %57, %50
  %sext = add i32 %.06676, -1
  %spec.select = add nuw nsw i32 %sext, %indvars.iv85
  br i1 %51, label %50, label %47, !llvm.loop !50
}